; Function Attrs: nounwind uwtable
define void @smart_str_erealloc(ptr nocapture noundef %0, i64 noundef %1) local_unnamed_addr #0 {
  %3 = load ptr, ptr %0, align 8
  %.not = icmp eq ptr %3, null
  %4 = add i64 %1, 4120
  %5 = and i64 %4, -4096
  %6 = add i64 %5, -25
  br i1 %.not, label %7, label %16

7:                                                ; preds = %2
  %.inv = icmp ugt i64 %1, 231
  %8 = select i1 %.inv, i64 %6, i64 231
  %9 = getelementptr inbounds i8, ptr %0, i64 8
  store i64 %8, ptr %9, align 8
  %10 = and i64 %8, -32
  %11 = add i64 %10, 32
  %12 = tail call noalias ptr @_emalloc(i64 noundef %11) #10
  store i32 1, ptr %12, align 4
  %13 = getelementptr inbounds i8, ptr %12, i64 4
  store i32 22, ptr %13, align 4
  %14 = getelementptr inbounds i8, ptr %12, i64 8
  store i64 0, ptr %14, align 8
  %15 = getelementptr inbounds i8, ptr %12, i64 16
  store ptr %12, ptr %0, align 8
  store i64 0, ptr %15, align 8
  br label %22

16:                                               ; preds = %2
  %17 = getelementptr inbounds i8, ptr %0, i64 8
  store i64 %6, ptr %17, align 8
  %18 = getelementptr inbounds i8, ptr %3, i64 16
  %19 = load i64, ptr %18, align 8
  %20 = add i64 %19, 24
  %21 = tail call ptr @_erealloc2(ptr noundef nonnull %3, i64 noundef %5, i64 noundef %20) #11
  store ptr %21, ptr %0, align 8
  br label %22

22:                                               ; preds = %16, %7
  ret void
}